target datalayout = "e-m:e-p270:32:32-p271:32:32-p272:64:64-i64:64-i128:128-f80:128-n8:16:32:64-S128"
target triple = "x86_64-pc-linux-gnu"

%struct.jpeg_compress_struct = type { ptr, ptr, ptr, ptr, i32, i32, ptr, i32, i32, i32, i32, double, i32, i32, i32, ptr, [4 x ptr], [4 x ptr], [4 x ptr], [16 x i8], [16 x i8], [16 x i8], i32, ptr, i32, i32, i32, i32, i32, i32, i32, i32, i32, i8, i8, i8, i16, i16, i32, i32, i32, i32, i32, i32, i32, [4 x ptr], i32, i32, i32, [10 x i32], i32, i32, i32, i32, ptr, ptr, ptr, ptr, ptr, ptr, ptr, ptr, ptr, ptr, i32 }
%struct.jpeg_component_info = type { i32, i32, i32, i32, i32, i32, i32, i32, i32, i32, i32, i32, i32, i32, i32, i32, i32, i32, i32, ptr, ptr }

; Function Attrs: nounwind uwtable
define internal void @expand_right_edge(ptr noundef %0, i32 noundef %1, i32 noundef %2, i32 noundef %3) #0 {
  %5 = alloca ptr, align 8
  %6 = alloca i32, align 4
  %7 = alloca i32, align 4
  %8 = alloca i32, align 4
  %9 = alloca ptr, align 8
  %10 = alloca i8, align 1
  %11 = alloca i32, align 4
  %12 = alloca i32, align 4
  %13 = alloca i32, align 4
  store ptr %0, ptr %5, align 8
  store i32 %1, ptr %6, align 4
  store i32 %2, ptr %7, align 4
  store i32 %3, ptr %8, align 4
  %14 = load i32, ptr %8, align 4
  %15 = load i32, ptr %7, align 4
  %16 = sub i32 %14, %15
  store i32 %16, ptr %13, align 4
  %17 = load i32, ptr %13, align 4
  %18 = icmp sgt i32 %17, 0
  br i1 %18, label %19, label %52

19:                                               ; preds = %4
  store i32 0, ptr %12, align 4
  br label %20

20:                                               ; preds = %48, %19
  %21 = load i32, ptr %12, align 4
  %22 = load i32, ptr %6, align 4
  %23 = icmp slt i32 %21, %22
  br i1 %23, label %24, label %51

24:                                               ; preds = %20
  %25 = load ptr, ptr %5, align 8
  %26 = load i32, ptr %12, align 4
  %27 = sext i32 %26 to i64
  %28 = getelementptr inbounds ptr, ptr %25, i64 %27
  %29 = load ptr, ptr %28, align 8
  %30 = load i32, ptr %7, align 4
  %31 = zext i32 %30 to i64
  %32 = getelementptr inbounds i8, ptr %29, i64 %31
  store ptr %32, ptr %9, align 8
  %33 = load ptr, ptr %9, align 8
  %34 = getelementptr inbounds i8, ptr %33, i64 -1
  %35 = load i8, ptr %34, align 1
  store i8 %35, ptr %10, align 1
  %36 = load i32, ptr %13, align 4
  store i32 %36, ptr %11, align 4
  br label %37

37:                                               ; preds = %44, %24
  %38 = load i32, ptr %11, align 4
  %39 = icmp sgt i32 %38, 0
  br i1 %39, label %40, label %47

40:                                               ; preds = %37
  %41 = load i8, ptr %10, align 1
  %42 = load ptr, ptr %9, align 8
  %43 = getelementptr inbounds i8, ptr %42, i32 1
  store ptr %43, ptr %9, align 8
  store i8 %41, ptr %42, align 1
  br label %44

44:                                               ; preds = %40
  %45 = load i32, ptr %11, align 4
  %46 = add nsw i32 %45, -1
  store i32 %46, ptr %11, align 4
  br label %37, !llvm.loop !21

47:                                               ; preds = %37
  br label %48

48:                                               ; preds = %47
  %49 = load i32, ptr %12, align 4
  %50 = add nsw i32 %49, 1
  store i32 %50, ptr %12, align 4
  br label %20, !llvm.loop !22

51:                                               ; preds = %20
  br label %52

52:                                               ; preds = %51, %4
  ret void
}

; Function Attrs: nounwind uwtable
define internal void @fullsize_smooth_downsample(ptr noundef %0, ptr noundef %1, ptr noundef %2, ptr noundef %3) #0 {
  %5 = alloca ptr, align 8
  %6 = alloca ptr, align 8
  %7 = alloca ptr, align 8
  %8 = alloca ptr, align 8
  %9 = alloca i32, align 4
  %10 = alloca i32, align 4
  %11 = alloca i32, align 4
  %12 = alloca ptr, align 8
  %13 = alloca ptr, align 8
  %14 = alloca ptr, align 8
  %15 = alloca ptr, align 8
  %16 = alloca i32, align 4
  %17 = alloca i32, align 4
  %18 = alloca i32, align 4
  %19 = alloca i32, align 4
  %20 = alloca i32, align 4
  %21 = alloca i32, align 4
  %22 = alloca i32, align 4
  store ptr %0, ptr %5, align 8
  store ptr %1, ptr %6, align 8
  store ptr %2, ptr %7, align 8
  store ptr %3, ptr %8, align 8
  %23 = load ptr, ptr %6, align 8
  %24 = getelementptr inbounds %struct.jpeg_component_info, ptr %23, i32 0, i32 7
  %25 = load i32, ptr %24, align 4
  %26 = mul i32 %25, 8
  store i32 %26, ptr %11, align 4
  %27 = load ptr, ptr %7, align 8
  %28 = getelementptr inbounds ptr, ptr %27, i64 -1
  %29 = load ptr, ptr %5, align 8
  %30 = getelementptr inbounds %struct.jpeg_compress_struct, ptr %29, i32 0, i32 42
  %31 = load i32, ptr %30, align 4
  %32 = add nsw i32 %31, 2
  %33 = load ptr, ptr %5, align 8
  %34 = getelementptr inbounds %struct.jpeg_compress_struct, ptr %33, i32 0, i32 7
  %35 = load i32, ptr %34, align 8
  %36 = load i32, ptr %11, align 4
  call void @expand_right_edge(ptr noundef %28, i32 noundef %32, i32 noundef %35, i32 noundef %36)
  %37 = load ptr, ptr %5, align 8
  %38 = getelementptr inbounds %struct.jpeg_compress_struct, ptr %37, i32 0, i32 28
  %39 = load i32, ptr %38, align 8
  %40 = sext i32 %39 to i64
  %41 = mul nsw i64 %40, 512
  %42 = sub nsw i64 65536, %41
  %43 = trunc i64 %42 to i32
  store i32 %43, ptr %18, align 4
  %44 = load ptr, ptr %5, align 8
  %45 = getelementptr inbounds %struct.jpeg_compress_struct, ptr %44, i32 0, i32 28
  %46 = load i32, ptr %45, align 8
  %47 = mul nsw i32 %46, 64
  store i32 %47, ptr %19, align 4
  store i32 0, ptr %9, align 4
  br label %48

48:                                               ; preds = %200, %4
  %49 = load i32, ptr %9, align 4
  %50 = load ptr, ptr %6, align 8
  %51 = getelementptr inbounds %struct.jpeg_component_info, ptr %50, i32 0, i32 3
  %52 = load i32, ptr %51, align 4
  %53 = icmp slt i32 %49, %52
  br i1 %53, label %54, label %203

54:                                               ; preds = %48
  %55 = load ptr, ptr %8, align 8
  %56 = load i32, ptr %9, align 4
  %57 = sext i32 %56 to i64
  %58 = getelementptr inbounds ptr, ptr %55, i64 %57
  %59 = load ptr, ptr %58, align 8
  store ptr %59, ptr %15, align 8
  %60 = load ptr, ptr %7, align 8
  %61 = load i32, ptr %9, align 4
  %62 = sext i32 %61 to i64
  %63 = getelementptr inbounds ptr, ptr %60, i64 %62
  %64 = load ptr, ptr %63, align 8
  store ptr %64, ptr %12, align 8
  %65 = load ptr, ptr %7, align 8
  %66 = load i32, ptr %9, align 4
  %67 = sub nsw i32 %66, 1
  %68 = sext i32 %67 to i64
  %69 = getelementptr inbounds ptr, ptr %65, i64 %68
  %70 = load ptr, ptr %69, align 8
  store ptr %70, ptr %13, align 8
  %71 = load ptr, ptr %7, align 8
  %72 = load i32, ptr %9, align 4
  %73 = add nsw i32 %72, 1
  %74 = sext i32 %73 to i64
  %75 = getelementptr inbounds ptr, ptr %71, i64 %74
  %76 = load ptr, ptr %75, align 8
  store ptr %76, ptr %14, align 8
  %77 = load ptr, ptr %13, align 8
  %78 = getelementptr inbounds i8, ptr %77, i32 1
  store ptr %78, ptr %13, align 8
  %79 = load i8, ptr %77, align 1
  %80 = zext i8 %79 to i32
  %81 = load ptr, ptr %14, align 8
  %82 = getelementptr inbounds i8, ptr %81, i32 1
  store ptr %82, ptr %14, align 8
  %83 = load i8, ptr %81, align 1
  %84 = zext i8 %83 to i32
  %85 = add nsw i32 %80, %84
  %86 = load ptr, ptr %12, align 8
  %87 = load i8, ptr %86, align 1
  %88 = zext i8 %87 to i32
  %89 = add nsw i32 %85, %88
  store i32 %89, ptr %20, align 4
  %90 = load ptr, ptr %12, align 8
  %91 = getelementptr inbounds i8, ptr %90, i32 1
  store ptr %91, ptr %12, align 8
  %92 = load i8, ptr %90, align 1
  %93 = zext i8 %92 to i32
  store i32 %93, ptr %16, align 4
  %94 = load ptr, ptr %13, align 8
  %95 = load i8, ptr %94, align 1
  %96 = zext i8 %95 to i32
  %97 = load ptr, ptr %14, align 8
  %98 = load i8, ptr %97, align 1
  %99 = zext i8 %98 to i32
  %100 = add nsw i32 %96, %99
  %101 = load ptr, ptr %12, align 8
  %102 = load i8, ptr %101, align 1
  %103 = zext i8 %102 to i32
  %104 = add nsw i32 %100, %103
  store i32 %104, ptr %22, align 4
  %105 = load i32, ptr %20, align 4
  %106 = load i32, ptr %20, align 4
  %107 = load i32, ptr %16, align 4
  %108 = sub nsw i32 %106, %107
  %109 = add nsw i32 %105, %108
  %110 = load i32, ptr %22, align 4
  %111 = add nsw i32 %109, %110
  store i32 %111, ptr %17, align 4
  %112 = load i32, ptr %16, align 4
  %113 = load i32, ptr %18, align 4
  %114 = mul nsw i32 %112, %113
  %115 = load i32, ptr %17, align 4
  %116 = load i32, ptr %19, align 4
  %117 = mul nsw i32 %115, %116
  %118 = add nsw i32 %114, %117
  store i32 %118, ptr %16, align 4
  %119 = load i32, ptr %16, align 4
  %120 = add nsw i32 %119, 32768
  %121 = ashr i32 %120, 16
  %122 = trunc i32 %121 to i8
  %123 = load ptr, ptr %15, align 8
  %124 = getelementptr inbounds i8, ptr %123, i32 1
  store ptr %124, ptr %15, align 8
  store i8 %122, ptr %123, align 1
  %125 = load i32, ptr %20, align 4
  store i32 %125, ptr %21, align 4
  %126 = load i32, ptr %22, align 4
  store i32 %126, ptr %20, align 4
  %127 = load i32, ptr %11, align 4
  %128 = sub i32 %127, 2
  store i32 %128, ptr %10, align 4
  br label %129

129:                                              ; preds = %174, %54
  %130 = load i32, ptr %10, align 4
  %131 = icmp ugt i32 %130, 0
  br i1 %131, label %132, label %177

132:                                              ; preds = %129
  %133 = load ptr, ptr %12, align 8
  %134 = getelementptr inbounds i8, ptr %133, i32 1
  store ptr %134, ptr %12, align 8
  %135 = load i8, ptr %133, align 1
  %136 = zext i8 %135 to i32
  store i32 %136, ptr %16, align 4
  %137 = load ptr, ptr %13, align 8
  %138 = getelementptr inbounds i8, ptr %137, i32 1
  store ptr %138, ptr %13, align 8
  %139 = load ptr, ptr %14, align 8
  %140 = getelementptr inbounds i8, ptr %139, i32 1
  store ptr %140, ptr %14, align 8
  %141 = load ptr, ptr %13, align 8
  %142 = load i8, ptr %141, align 1
  %143 = zext i8 %142 to i32
  %144 = load ptr, ptr %14, align 8
  %145 = load i8, ptr %144, align 1
  %146 = zext i8 %145 to i32
  %147 = add nsw i32 %143, %146
  %148 = load ptr, ptr %12, align 8
  %149 = load i8, ptr %148, align 1
  %150 = zext i8 %149 to i32
  %151 = add nsw i32 %147, %150
  store i32 %151, ptr %22, align 4
  %152 = load i32, ptr %21, align 4
  %153 = load i32, ptr %20, align 4
  %154 = load i32, ptr %16, align 4
  %155 = sub nsw i32 %153, %154
  %156 = add nsw i32 %152, %155
  %157 = load i32, ptr %22, align 4
  %158 = add nsw i32 %156, %157
  store i32 %158, ptr %17, align 4
  %159 = load i32, ptr %16, align 4
  %160 = load i32, ptr %18, align 4
  %161 = mul nsw i32 %159, %160
  %162 = load i32, ptr %17, align 4
  %163 = load i32, ptr %19, align 4
  %164 = mul nsw i32 %162, %163
  %165 = add nsw i32 %161, %164
  store i32 %165, ptr %16, align 4
  %166 = load i32, ptr %16, align 4
  %167 = add nsw i32 %166, 32768
  %168 = ashr i32 %167, 16
  %169 = trunc i32 %168 to i8
  %170 = load ptr, ptr %15, align 8
  %171 = getelementptr inbounds i8, ptr %170, i32 1
  store ptr %171, ptr %15, align 8
  store i8 %169, ptr %170, align 1
  %172 = load i32, ptr %20, align 4
  store i32 %172, ptr %21, align 4
  %173 = load i32, ptr %22, align 4
  store i32 %173, ptr %20, align 4
  br label %174

174:                                              ; preds = %132
  %175 = load i32, ptr %10, align 4
  %176 = add i32 %175, -1
  store i32 %176, ptr %10, align 4
  br label %129, !llvm.loop !9

177:                                              ; preds = %129
  %178 = load ptr, ptr %12, align 8
  %179 = load i8, ptr %178, align 1
  %180 = zext i8 %179 to i32
  store i32 %180, ptr %16, align 4
  %181 = load i32, ptr %21, align 4
  %182 = load i32, ptr %20, align 4
  %183 = load i32, ptr %16, align 4
  %184 = sub nsw i32 %182, %183
  %185 = add nsw i32 %181, %184
  %186 = load i32, ptr %20, align 4
  %187 = add nsw i32 %185, %186
  store i32 %187, ptr %17, align 4
  %188 = load i32, ptr %16, align 4
  %189 = load i32, ptr %18, align 4
  %190 = mul nsw i32 %188, %189
  %191 = load i32, ptr %17, align 4
  %192 = load i32, ptr %19, align 4
  %193 = mul nsw i32 %191, %192
  %194 = add nsw i32 %190, %193
  store i32 %194, ptr %16, align 4
  %195 = load i32, ptr %16, align 4
  %196 = add nsw i32 %195, 32768
  %197 = ashr i32 %196, 16
  %198 = trunc i32 %197 to i8
  %199 = load ptr, ptr %15, align 8
  store i8 %198, ptr %199, align 1
  br label %200

200:                                              ; preds = %177
  %201 = load i32, ptr %9, align 4
  %202 = add nsw i32 %201, 1
  store i32 %202, ptr %9, align 4
  br label %48, !llvm.loop !10

203:                                              ; preds = %48
  ret void
}