; Function Attrs: nofree norecurse nosync nounwind memory(readwrite, inaccessiblemem: none) uwtable
define internal void @fullsize_smooth_downsample(ptr nocapture noundef readonly %0, ptr nocapture noundef readonly %1, ptr nocapture noundef readonly %2, ptr nocapture noundef readonly %3) #2 {
  %5 = getelementptr inbounds i8, ptr %1, i64 28
  %6 = load i32, ptr %5, align 4
  %7 = shl i32 %6, 3
  %8 = getelementptr inbounds i8, ptr %2, i64 -8
  %9 = getelementptr inbounds i8, ptr %0, i64 316
  %10 = load i32, ptr %9, align 4
  %11 = getelementptr inbounds i8, ptr %0, i64 48
  %12 = load i32, ptr %11, align 8
  %13 = sub i32 %7, %12
  %14 = icmp sgt i32 %13, 0
  %15 = icmp sgt i32 %10, -2
  %or.cond.i = and i1 %15, %14
  br i1 %or.cond.i, label %.lr.ph20.i, label %expand_right_edge.exit

.lr.ph20.i:                                       ; preds = %4
  %16 = add nsw i32 %10, 2
  %17 = zext i32 %12 to i64
  %18 = xor i32 %12, -1
  %19 = add i32 %7, %18
  %20 = zext i32 %19 to i64
  %21 = add nuw nsw i64 %20, 1
  %wide.trip.count.i = zext nneg i32 %16 to i64
  br label %.lr.ph.us.i

.lr.ph.us.i:                                      ; preds = %.lr.ph.us.i, %.lr.ph20.i
  %indvars.iv.i = phi i64 [ 0, %.lr.ph20.i ], [ %indvars.iv.next.i, %.lr.ph.us.i ]
  %22 = getelementptr inbounds ptr, ptr %8, i64 %indvars.iv.i
  %23 = load ptr, ptr %22, align 8
  %24 = getelementptr inbounds i8, ptr %23, i64 %17
  %25 = getelementptr inbounds i8, ptr %24, i64 -1
  %26 = load i8, ptr %25, align 1
  tail call void @llvm.memset.p0.i64(ptr noundef nonnull align 1 dereferenceable(1) %24, i8 %26, i64 %21, i1 false)
  %indvars.iv.next.i = add nuw nsw i64 %indvars.iv.i, 1
  %exitcond.not.i = icmp eq i64 %indvars.iv.next.i, %wide.trip.count.i
  br i1 %exitcond.not.i, label %expand_right_edge.exit, label %.lr.ph.us.i, !llvm.loop !9

expand_right_edge.exit:                           ; preds = %.lr.ph.us.i, %4
  %27 = getelementptr inbounds i8, ptr %0, i64 272
  %28 = load i32, ptr %27, align 8
  %29 = shl i32 %28, 9
  %30 = sub i32 65536, %29
  %31 = shl nsw i32 %28, 6
  %32 = getelementptr inbounds i8, ptr %1, i64 12
  %33 = load i32, ptr %32, align 4
  %34 = icmp sgt i32 %33, 0
  br i1 %34, label %.lr.ph, label %._crit_edge

.lr.ph:                                           ; preds = %expand_right_edge.exit
  %35 = add i32 %7, -2
  br label %36

36:                                               ; preds = %.lr.ph, %96
  %indvars.iv = phi i64 [ 0, %.lr.ph ], [ %indvars.iv.next, %96 ]
  %37 = getelementptr inbounds ptr, ptr %3, i64 %indvars.iv
  %38 = load ptr, ptr %37, align 8
  %39 = getelementptr inbounds ptr, ptr %2, i64 %indvars.iv
  %40 = load ptr, ptr %39, align 8
  %41 = getelementptr i8, ptr %39, i64 -8
  %42 = load ptr, ptr %41, align 8
  %indvars.iv.next = add nuw nsw i64 %indvars.iv, 1
  %43 = getelementptr inbounds ptr, ptr %2, i64 %indvars.iv.next
  %44 = load ptr, ptr %43, align 8
  %45 = getelementptr inbounds i8, ptr %42, i64 1
  %46 = load i8, ptr %42, align 1
  %47 = zext i8 %46 to i32
  %48 = getelementptr inbounds i8, ptr %44, i64 1
  %49 = load i8, ptr %44, align 1
  %50 = zext i8 %49 to i32
  %51 = add nuw nsw i32 %50, %47
  %52 = load i8, ptr %40, align 1
  %53 = zext i8 %52 to i32
  %54 = add nuw nsw i32 %51, %53
  %55 = getelementptr inbounds i8, ptr %40, i64 1
  %56 = load i8, ptr %45, align 1
  %57 = zext i8 %56 to i32
  %58 = load i8, ptr %48, align 1
  %59 = zext i8 %58 to i32
  %60 = add nuw nsw i32 %59, %57
  %61 = load i8, ptr %55, align 1
  %62 = zext i8 %61 to i32
  %63 = add nuw nsw i32 %60, %62
  %64 = add nuw nsw i32 %54, %51
  %65 = add nuw nsw i32 %64, %63
  %66 = mul nsw i32 %30, %53
  %67 = mul nsw i32 %65, %31
  %68 = add i32 %66, 32768
  %69 = add i32 %68, %67
  %70 = lshr i32 %69, 16
  %71 = trunc i32 %70 to i8
  store i8 %71, ptr %38, align 1
  %.07176 = getelementptr inbounds i8, ptr %38, i64 1
  br label %72

72:                                               ; preds = %36, %72
  %.07183 = phi ptr [ %.07176, %36 ], [ %.071, %72 ]
  %.082 = phi i32 [ %54, %36 ], [ %.06881, %72 ]
  %.06881 = phi i32 [ %63, %36 ], [ %85, %72 ]
  %.07080 = phi i32 [ %35, %36 ], [ %95, %72 ]
  %.07279 = phi ptr [ %48, %36 ], [ %77, %72 ]
  %.07378 = phi ptr [ %45, %36 ], [ %76, %72 ]
  %.07477 = phi ptr [ %55, %36 ], [ %73, %72 ]
  %73 = getelementptr inbounds i8, ptr %.07477, i64 1
  %74 = load i8, ptr %.07477, align 1
  %75 = zext i8 %74 to i32
  %76 = getelementptr inbounds i8, ptr %.07378, i64 1
  %77 = getelementptr inbounds i8, ptr %.07279, i64 1
  %78 = load i8, ptr %76, align 1
  %79 = zext i8 %78 to i32
  %80 = load i8, ptr %77, align 1
  %81 = zext i8 %80 to i32
  %82 = add nuw nsw i32 %81, %79
  %83 = load i8, ptr %73, align 1
  %84 = zext i8 %83 to i32
  %85 = add nuw nsw i32 %82, %84
  %86 = add nuw nsw i32 %.082, %.06881
  %87 = sub nsw i32 %86, %75
  %88 = add nsw i32 %87, %85
  %89 = mul nsw i32 %30, %75
  %90 = mul nsw i32 %88, %31
  %91 = add i32 %89, 32768
  %92 = add i32 %91, %90
  %93 = lshr i32 %92, 16
  %94 = trunc i32 %93 to i8
  store i8 %94, ptr %.07183, align 1
  %95 = add i32 %.07080, -1
  %.071 = getelementptr inbounds i8, ptr %.07183, i64 1
  %.not = icmp eq i32 %95, 0
  br i1 %.not, label %96, label %72, !llvm.loop !10

96:                                               ; preds = %72
  %97 = load i8, ptr %73, align 1
  %98 = zext i8 %97 to i32
  %factor = shl nuw nsw i32 %85, 1
  %99 = add nuw nsw i32 %factor, %.06881
  %100 = sub nsw i32 %99, %98
  %101 = mul nsw i32 %30, %98
  %102 = mul nsw i32 %100, %31
  %103 = add i32 %101, 32768
  %104 = add i32 %103, %102
  %105 = lshr i32 %104, 16
  %106 = trunc i32 %105 to i8
  store i8 %106, ptr %.071, align 1
  %107 = load i32, ptr %32, align 4
  %108 = sext i32 %107 to i64
  %109 = icmp slt i64 %indvars.iv.next, %108
  br i1 %109, label %36, label %._crit_edge, !llvm.loop !11

._crit_edge:                                      ; preds = %96, %expand_right_edge.exit
  ret void
}